target datalayout = "e-m:e-p270:32:32-p271:32:32-p272:64:64-i64:64-i128:128-f80:128-n8:16:32:64-S128"
target triple = "x86_64-pc-linux-gnu"

%struct._lv_anim_t = type { ptr, ptr, ptr, ptr, ptr, ptr, ptr, ptr, ptr, i32, i32, i32, i32, i32, i32, i32, i32, i32, %union._lv_anim_path_para_t, i32, i8 }
%union._lv_anim_path_para_t = type { %struct.lv_anim_bezier3_para_t }
%struct.lv_anim_bezier3_para_t = type { i16, i16, i16, i16 }

; Function Attrs: nounwind uwtable
define void @lv_anim_set_bezier3_param(ptr noundef %0, i16 noundef signext %1, i16 noundef signext %2, i16 noundef signext %3, i16 noundef signext %4) #0 {
  %6 = alloca ptr, align 8
  %7 = alloca i16, align 2
  %8 = alloca i16, align 2
  %9 = alloca i16, align 2
  %10 = alloca i16, align 2
  %11 = alloca ptr, align 8
  store ptr %0, ptr %6, align 8, !tbaa !21
  store i16 %1, ptr %7, align 2, !tbaa !50
  store i16 %2, ptr %8, align 2, !tbaa !50
  store i16 %3, ptr %9, align 2, !tbaa !50
  store i16 %4, ptr %10, align 2, !tbaa !50
  call void @llvm.lifetime.start.p0(i64 8, ptr %11) #4
  %12 = load ptr, ptr %6, align 8, !tbaa !21
  %13 = getelementptr inbounds nuw %struct._lv_anim_t, ptr %12, i32 0, i32 18
  store ptr %13, ptr %11, align 8, !tbaa !21
  %14 = load i16, ptr %7, align 2, !tbaa !50
  %15 = load ptr, ptr %11, align 8, !tbaa !21
  %16 = getelementptr inbounds nuw %struct.lv_anim_bezier3_para_t, ptr %15, i32 0, i32 0
  store i16 %14, ptr %16, align 2, !tbaa !53
  %17 = load i16, ptr %9, align 2, !tbaa !50
  %18 = load ptr, ptr %11, align 8, !tbaa !21
  %19 = getelementptr inbounds nuw %struct.lv_anim_bezier3_para_t, ptr %18, i32 0, i32 2
  store i16 %17, ptr %19, align 2, !tbaa !56
  %20 = load i16, ptr %8, align 2, !tbaa !50
  %21 = load ptr, ptr %11, align 8, !tbaa !21
  %22 = getelementptr inbounds nuw %struct.lv_anim_bezier3_para_t, ptr %21, i32 0, i32 1
  store i16 %20, ptr %22, align 2, !tbaa !55
  %23 = load i16, ptr %10, align 2, !tbaa !50
  %24 = load ptr, ptr %11, align 8, !tbaa !21
  %25 = getelementptr inbounds nuw %struct.lv_anim_bezier3_para_t, ptr %24, i32 0, i32 3
  store i16 %23, ptr %25, align 2, !tbaa !57
  call void @llvm.lifetime.end.p0(i64 8, ptr %11) #4
  ret void
}