; Function Attrs: mustprogress nofree norecurse nosync nounwind willreturn memory(argmem: write) uwtable
define void @lv_anim_set_bezier3_param(ptr nocapture noundef writeonly %0, i16 noundef signext %1, i16 noundef signext %2, i16 noundef signext %3, i16 noundef signext %4) local_unnamed_addr #6 {
  %6 = getelementptr inbounds nuw i8, ptr %0, i64 108
  store i16 %1, ptr %6, align 2, !tbaa !49
  %7 = getelementptr inbounds nuw i8, ptr %0, i64 112
  store i16 %3, ptr %7, align 2, !tbaa !53
  %8 = getelementptr inbounds nuw i8, ptr %0, i64 110
  store i16 %2, ptr %8, align 2, !tbaa !52
  %9 = getelementptr inbounds nuw i8, ptr %0, i64 114
  store i16 %4, ptr %9, align 2, !tbaa !54
  ret void
}